Certificate:
    Data:
        Version: 3 (0x2)
        Serial Number: 1 (0x1)
    Signature Algorithm: sha256WithRSAEncryption
        Issuer: C=FR, ST=IleDeFrance, L=Paris, O=INTECH, OU=Technologues, CN=INTECH CA/name=EasyRSA/emailAddress=link@intechinfo.fr
        Validity
            Not Before: Apr 24 09:41:31 2017 GMT
            Not After : Apr 22 09:41:31 2027 GMT
        Subject: C=FR, ST=IleDeFrance, L=Paris, O=INTECH, OU=Technologues, CN=LINK/name=EasyRSA/emailAddress=link@intechinfo.fr
        Subject Public Key Info:
            Public Key Algorithm: rsaEncryption
                Public-Key: (2048 bit)
                Modulus:
                    00:ca:b9:41:b4:dc:d6:fa:74:a4:f1:7f:d3:9f:11:
                    fd:7b:b4:bc:30:50:46:4e:f6:fa:da:9e:3d:fd:85:
                    a0:2a:c7:ae:b3:ff:63:1e:08:c7:e3:26:eb:11:09:
                    4e:f0:76:a9:9b:db:a7:51:4b:7c:6c:6d:a9:f6:08:
                    e9:48:75:e8:80:70:7b:fe:b1:5c:54:4c:85:5e:39:
                    4c:ed:fb:49:c6:79:98:d8:a6:38:c5:9b:59:bd:94:
                    38:2c:5d:a1:f2:ee:1f:c1:4f:67:27:39:43:4c:e8:
                    7e:67:2f:9d:d1:7b:3a:0e:7b:9b:1f:07:62:eb:45:
                    31:93:4d:6d:ec:60:92:a3:98:5f:2d:36:37:8c:ac:
                    d5:cf:b8:59:42:13:b7:0f:d9:5f:cc:41:97:49:c0:
                    00:f2:22:3a:0e:9d:8d:ce:fb:82:6d:00:aa:47:c6:
                    41:97:4f:36:ac:16:30:45:89:87:a0:57:94:93:1f:
                    85:64:0e:7a:69:9c:9c:26:ec:42:be:be:47:6f:c5:
                    dd:3f:4a:6f:c9:3f:ea:36:e8:38:6a:8f:75:ba:dd:
                    11:41:69:e6:a2:9d:86:92:89:36:05:20:10:a5:3b:
                    72:2f:37:be:db:9a:9a:f6:fe:4d:0a:5d:83:08:b3:
                    d0:bd:fe:2d:cf:b8:43:96:fc:53:ce:65:3e:17:4e:
                    26:1b
                Exponent: 65537 (0x10001)
        X509v3 extensions:
            X509v3 Basic Constraints: 
                CA:FALSE
            Netscape Cert Type: 
                SSL Server
            Netscape Comment: 
                Easy-RSA Generated Server Certificate
            X509v3 Subject Key Identifier: 
                43:D3:34:49:C1:05:2B:4B:BD:F6:2B:5E:E8:75:9F:15:F0:0E:D0:BD
            X509v3 Authority Key Identifier: 
                keyid:A3:8E:A5:AB:9A:D1:38:C1:99:C8:C2:32:C0:3F:F6:E7:27:DA:FD:E4
                DirName:/C=FR/ST=IleDeFrance/L=Paris/O=INTECH/OU=Technologues/CN=INTECH CA/name=EasyRSA/emailAddress=link@intechinfo.fr
                serial:D2:F2:2C:A7:98:48:51:0E

            X509v3 Extended Key Usage: 
                TLS Web Server Authentication
            X509v3 Key Usage: 
                Digital Signature, Key Encipherment
            X509v3 Subject Alternative Name: 
                DNS:LINK
    Signature Algorithm: sha256WithRSAEncryption
         a7:02:d2:46:0e:03:eb:7d:7a:de:c1:21:7b:2e:dd:05:e8:eb:
         0a:06:95:d6:ee:2f:20:e6:c7:d7:e9:b9:10:b1:35:fe:92:b1:
         2b:fb:15:35:6e:eb:e9:1e:a8:b6:3d:63:fa:70:da:00:7e:3c:
         32:54:f2:df:d9:59:b7:d2:a9:bf:98:7e:64:7d:d3:24:27:92:
         fd:94:4b:94:d2:10:98:6b:81:22:73:8a:0a:78:30:fd:ad:41:
         c0:6c:aa:33:ea:b7:1b:e8:69:dd:02:64:3f:fc:8f:53:53:e3:
         ad:3e:67:82:35:90:5c:81:cd:74:85:ea:0b:47:f4:8c:c2:30:
         39:93:8c:3e:f4:e4:ba:4a:1a:ef:42:1d:19:ac:fd:1c:31:e8:
         14:f6:0d:ea:74:86:7b:91:92:5c:48:87:6c:0f:d8:84:a8:1a:
         bf:ea:df:bc:91:f8:1c:a5:12:0f:87:6c:38:d6:b9:fb:ea:de:
         99:13:29:62:81:26:ea:89:af:2d:46:c6:92:94:2c:35:bc:c3:
         4c:3b:43:00:19:3f:6f:63:10:40:a0:d1:73:5c:a4:68:f9:22:
         49:ba:4f:76:e7:0f:02:a9:4e:0c:d8:1a:4e:d0:95:5b:6c:2d:
         6c:f1:cc:09:79:6e:b4:99:d9:c2:86:e3:f9:bb:de:33:6f:62:
         e8:43:37:8e
-----BEGIN CERTIFICATE-----
MIIFSDCCBDCgAwIBAgIBATANBgkqhkiG9w0BAQsFADCBpDELMAkGA1UEBhMCRlIx
FDASBgNVBAgTC0lsZURlRnJhbmNlMQ4wDAYDVQQHEwVQYXJpczEPMA0GA1UEChMG
SU5URUNIMRUwEwYDVQQLEwxUZWNobm9sb2d1ZXMxEjAQBgNVBAMTCUlOVEVDSCBD
QTEQMA4GA1UEKRMHRWFzeVJTQTEhMB8GCSqGSIb3DQEJARYSbGlua0BpbnRlY2hp
bmZvLmZyMB4XDTE3MDQyNDA5NDEzMVoXDTI3MDQyMjA5NDEzMVowgZ8xCzAJBgNV
BAYTAkZSMRQwEgYDVQQIEwtJbGVEZUZyYW5jZTEOMAwGA1UEBxMFUGFyaXMxDzAN
BgNVBAoTBklOVEVDSDEVMBMGA1UECxMMVGVjaG5vbG9ndWVzMQ0wCwYDVQQDEwRM
SU5LMRAwDgYDVQQpEwdFYXN5UlNBMSEwHwYJKoZIhvcNAQkBFhJsaW5rQGludGVj
aGluZm8uZnIwggEiMA0GCSqGSIb3DQEBAQUAA4IBDwAwggEKAoIBAQDKuUG03Nb6
dKTxf9OfEf17tLwwUEZO9vranj39haAqx66z/2MeCMfjJusRCU7wdqmb26dRS3xs
ban2COlIdeiAcHv+sVxUTIVeOUzt+0nGeZjYpjjFm1m9lDgsXaHy7h/BT2cnOUNM
6H5nL53RezoOe5sfB2LrRTGTTW3sYJKjmF8tNjeMrNXPuFlCE7cP2V/MQZdJwADy
IjoOnY3O+4JtAKpHxkGXTzasFjBFiYegV5STH4VkDnppnJwm7EK+vkdvxd0/Sm/J
P+o26Dhqj3W63RFBaeainYaSiTYFIBClO3IvN77bmpr2/k0KXYMIs9C9/i3PuEOW
/FPOZT4XTiYbAgMBAAGjggGGMIIBgjAJBgNVHRMEAjAAMBEGCWCGSAGG+EIBAQQE
AwIGQDA0BglghkgBhvhCAQ0EJxYlRWFzeS1SU0EgR2VuZXJhdGVkIFNlcnZlciBD
ZXJ0aWZpY2F0ZTAdBgNVHQ4EFgQUQ9M0ScEFK0u99ite6HWfFfAO0L0wgdkGA1Ud
IwSB0TCBzoAUo46lq5rROMGZyMIywD/25yfa/eShgaqkgacwgaQxCzAJBgNVBAYT
AkZSMRQwEgYDVQQIEwtJbGVEZUZyYW5jZTEOMAwGA1UEBxMFUGFyaXMxDzANBgNV
BAoTBklOVEVDSDEVMBMGA1UECxMMVGVjaG5vbG9ndWVzMRIwEAYDVQQDEwlJTlRF
Q0ggQ0ExEDAOBgNVBCkTB0Vhc3lSU0ExITAfBgkqhkiG9w0BCQEWEmxpbmtAaW50
ZWNoaW5mby5mcoIJANLyLKeYSFEOMBMGA1UdJQQMMAoGCCsGAQUFBwMBMAsGA1Ud
DwQEAwIFoDAPBgNVHREECDAGggRMSU5LMA0GCSqGSIb3DQEBCwUAA4IBAQCnAtJG
DgPrfXrewSF7Lt0F6OsKBpXW7i8g5sfX6bkQsTX+krEr+xU1buvpHqi2PWP6cNoA
fjwyVPLf2Vm30qm/mH5kfdMkJ5L9lEuU0hCYa4Eic4oKeDD9rUHAbKoz6rcb6Gnd
AmQ//I9TU+OtPmeCNZBcgc10heoLR/SMwjA5k4w+9OS6ShrvQh0ZrP0cMegU9g3q
dIZ7kZJcSIdsD9iEqBq/6t+8kfgcpRIPh2w41rn76t6ZEyligSbqia8tRsaSlCw1
vMNMO0MAGT9vYxBAoNFzXKRo+SJJuk925w8CqU4M2BpO0JVbbC1s8cwJeW60mdnC
huP5u94zb2LoQzeO
-----END CERTIFICATE-----
