Certificate:
    Data:
        Version: 3 (0x2)
        Serial Number: 1 (0x1)
    Signature Algorithm: sha256WithRSAEncryption
        Issuer: C=FR, ST=IleDeFrance, L=Paris, O=INTECH, OU=Technologues, CN=INTECH CA/name=EasyRSA/emailAddress=link@intechinfo.fr
        Validity
            Not Before: Apr 28 07:04:50 2017 GMT
            Not After : Apr 26 07:04:50 2027 GMT
        Subject: C=FR, ST=IleDeFrance, L=Paris, O=INTECH, OU=Technologues, CN=LINK/name=EasyRSA/emailAddress=link@intechinfo.fr
        Subject Public Key Info:
            Public Key Algorithm: rsaEncryption
                Public-Key: (2048 bit)
                Modulus:
                    00:b8:b5:ce:98:9f:fd:40:13:99:4f:50:ca:38:93:
                    c9:b0:53:79:7d:90:a9:73:1a:38:3c:c5:ad:39:f6:
                    27:e5:4a:ba:9b:9f:93:1e:e7:34:db:d6:92:65:86:
                    ec:cc:bc:21:48:fb:60:79:ab:97:c0:25:06:0c:37:
                    6f:64:20:ba:a6:e6:c2:ec:b9:79:20:08:0b:79:54:
                    65:75:5c:bf:cb:a4:80:88:5a:18:84:0d:6c:95:87:
                    f2:53:2b:6c:4e:1d:f2:40:f0:16:7c:c1:d3:d9:28:
                    71:db:59:87:29:d6:98:66:8a:78:51:37:05:c1:a2:
                    d7:cd:8c:b2:1b:d2:f0:e1:17:a6:70:99:f8:54:02:
                    54:bb:90:67:97:f2:c6:40:52:ad:7e:ea:fd:b9:b0:
                    70:79:55:ec:ff:50:de:25:8f:78:b1:de:b4:9a:35:
                    56:78:b6:7d:44:08:e9:e6:e0:c0:81:15:77:61:b3:
                    a2:5a:2a:70:2f:47:bf:ac:2f:31:c8:92:0d:d3:4c:
                    31:6d:be:a7:7e:24:4c:ea:c1:0f:02:d8:a8:fa:9b:
                    62:91:42:80:1f:7c:1b:5c:8d:67:ba:f7:d4:b2:44:
                    29:59:59:3b:6c:b1:3c:4f:46:8a:59:de:fd:11:41:
                    b9:ba:22:9d:9b:45:58:32:3f:a2:20:d4:77:ea:0e:
                    26:0d
                Exponent: 65537 (0x10001)
        X509v3 extensions:
            X509v3 Basic Constraints: 
                CA:FALSE
            Netscape Cert Type: 
                SSL Server
            Netscape Comment: 
                Easy-RSA Generated Server Certificate
            X509v3 Subject Key Identifier: 
                AC:C7:E9:03:17:EB:34:58:BE:6F:E8:89:92:C0:30:5D:01:A8:D4:78
            X509v3 Authority Key Identifier: 
                keyid:86:65:89:EA:C9:28:D0:00:C1:EB:0D:15:C2:11:F9:8C:55:9E:5F:93
                DirName:/C=FR/ST=IleDeFrance/L=Paris/O=INTECH/OU=Technologues/CN=INTECH CA/name=EasyRSA/emailAddress=link@intechinfo.fr
                serial:E1:97:AD:F4:02:CB:A7:A0

            X509v3 Extended Key Usage: 
                TLS Web Server Authentication
            X509v3 Key Usage: 
                Digital Signature, Key Encipherment
            X509v3 Subject Alternative Name: 
                DNS:LINK
    Signature Algorithm: sha256WithRSAEncryption
         55:6c:17:12:9e:3e:0c:49:fc:af:ac:1b:c2:74:eb:b4:51:79:
         dc:8e:25:32:45:82:b4:93:72:3d:6a:11:b3:f1:36:82:fa:52:
         6d:b4:d5:ed:ae:85:01:9e:71:4a:07:23:2d:74:16:77:27:d3:
         c9:fe:53:ef:05:85:fd:cc:72:69:91:fd:89:c4:fc:55:21:8f:
         65:be:60:79:da:eb:26:49:a2:34:0e:1a:f2:10:22:93:06:20:
         c3:cd:65:44:79:fc:40:e0:b8:ec:62:86:1e:25:f0:39:03:a0:
         8a:ef:05:21:f7:21:23:0b:2a:dd:bc:01:b1:0e:01:da:98:ba:
         a0:80:fe:e4:ab:4d:b9:e1:75:08:8c:1e:c6:36:e0:3a:43:48:
         8a:3c:92:2f:db:bf:4c:2b:f5:25:0c:9b:34:42:1d:df:c3:6d:
         f8:c8:f3:05:4a:b9:2a:82:3d:7c:63:15:4d:e0:7e:4e:32:87:
         a6:3e:1e:ee:50:1c:fc:70:f4:a2:2f:8c:96:8d:f3:5b:ea:36:
         e6:56:73:c2:79:9c:85:1d:f4:bd:cc:54:7f:d9:66:cb:4d:91:
         af:aa:24:c7:0b:68:d6:7a:19:3f:6a:6c:7c:3b:62:9f:9f:76:
         7d:68:16:0d:88:cc:25:d0:11:f2:bd:c6:9d:41:91:8a:28:2f:
         18:3f:67:ae
-----BEGIN CERTIFICATE-----
MIIFSDCCBDCgAwIBAgIBATANBgkqhkiG9w0BAQsFADCBpDELMAkGA1UEBhMCRlIx
FDASBgNVBAgTC0lsZURlRnJhbmNlMQ4wDAYDVQQHEwVQYXJpczEPMA0GA1UEChMG
SU5URUNIMRUwEwYDVQQLEwxUZWNobm9sb2d1ZXMxEjAQBgNVBAMTCUlOVEVDSCBD
QTEQMA4GA1UEKRMHRWFzeVJTQTEhMB8GCSqGSIb3DQEJARYSbGlua0BpbnRlY2hp
bmZvLmZyMB4XDTE3MDQyODA3MDQ1MFoXDTI3MDQyNjA3MDQ1MFowgZ8xCzAJBgNV
BAYTAkZSMRQwEgYDVQQIEwtJbGVEZUZyYW5jZTEOMAwGA1UEBxMFUGFyaXMxDzAN
BgNVBAoTBklOVEVDSDEVMBMGA1UECxMMVGVjaG5vbG9ndWVzMQ0wCwYDVQQDEwRM
SU5LMRAwDgYDVQQpEwdFYXN5UlNBMSEwHwYJKoZIhvcNAQkBFhJsaW5rQGludGVj
aGluZm8uZnIwggEiMA0GCSqGSIb3DQEBAQUAA4IBDwAwggEKAoIBAQC4tc6Yn/1A
E5lPUMo4k8mwU3l9kKlzGjg8xa059iflSrqbn5Me5zTb1pJlhuzMvCFI+2B5q5fA
JQYMN29kILqm5sLsuXkgCAt5VGV1XL/LpICIWhiEDWyVh/JTK2xOHfJA8BZ8wdPZ
KHHbWYcp1phminhRNwXBotfNjLIb0vDhF6ZwmfhUAlS7kGeX8sZAUq1+6v25sHB5
Vez/UN4lj3ix3rSaNVZ4tn1ECOnm4MCBFXdhs6JaKnAvR7+sLzHIkg3TTDFtvqd+
JEzqwQ8C2Kj6m2KRQoAffBtcjWe699SyRClZWTtssTxPRopZ3v0RQbm6Ip2bRVgy
P6Ig1HfqDiYNAgMBAAGjggGGMIIBgjAJBgNVHRMEAjAAMBEGCWCGSAGG+EIBAQQE
AwIGQDA0BglghkgBhvhCAQ0EJxYlRWFzeS1SU0EgR2VuZXJhdGVkIFNlcnZlciBD
ZXJ0aWZpY2F0ZTAdBgNVHQ4EFgQUrMfpAxfrNFi+b+iJksAwXQGo1HgwgdkGA1Ud
IwSB0TCBzoAUhmWJ6sko0ADB6w0VwhH5jFWeX5OhgaqkgacwgaQxCzAJBgNVBAYT
AkZSMRQwEgYDVQQIEwtJbGVEZUZyYW5jZTEOMAwGA1UEBxMFUGFyaXMxDzANBgNV
BAoTBklOVEVDSDEVMBMGA1UECxMMVGVjaG5vbG9ndWVzMRIwEAYDVQQDEwlJTlRF
Q0ggQ0ExEDAOBgNVBCkTB0Vhc3lSU0ExITAfBgkqhkiG9w0BCQEWEmxpbmtAaW50
ZWNoaW5mby5mcoIJAOGXrfQCy6egMBMGA1UdJQQMMAoGCCsGAQUFBwMBMAsGA1Ud
DwQEAwIFoDAPBgNVHREECDAGggRMSU5LMA0GCSqGSIb3DQEBCwUAA4IBAQBVbBcS
nj4MSfyvrBvCdOu0UXncjiUyRYK0k3I9ahGz8TaC+lJttNXtroUBnnFKByMtdBZ3
J9PJ/lPvBYX9zHJpkf2JxPxVIY9lvmB52usmSaI0DhryECKTBiDDzWVEefxA4Ljs
YoYeJfA5A6CK7wUh9yEjCyrdvAGxDgHamLqggP7kq0254XUIjB7GNuA6Q0iKPJIv
279MK/UlDJs0Qh3fw234yPMFSrkqgj18YxVN4H5OMoemPh7uUBz8cPSiL4yWjfNb
6jbmVnPCeZyFHfS9zFR/2WbLTZGvqiTHC2jWehk/amx8O2Kfn3Z9aBYNiMwl0BHy
vcadQZGKKC8YP2eu
-----END CERTIFICATE-----
